target datalayout = "e-m:e-p270:32:32-p271:32:32-p272:64:64-i64:64-i128:128-f80:128-n8:16:32:64-S128"
target triple = "x86_64-unknown-linux-gnu"

%"class.facebook::velox::type::Parser" = type { ptr, %"class.facebook::velox::type::Parser::stack", ptr }
%"class.facebook::velox::type::Parser::stack" = type { %"class.std::vector" }
%"class.std::vector" = type { %"struct.std::_Vector_base" }
%"struct.std::_Vector_base" = type { %"struct.std::_Vector_base<facebook::velox::type::Parser::stack_symbol_type, std::allocator<facebook::velox::type::Parser::stack_symbol_type>>::_Vector_impl" }
%"struct.std::_Vector_base<facebook::velox::type::Parser::stack_symbol_type, std::allocator<facebook::velox::type::Parser::stack_symbol_type>>::_Vector_impl" = type { %"struct.std::_Vector_base<facebook::velox::type::Parser::stack_symbol_type, std::allocator<facebook::velox::type::Parser::stack_symbol_type>>::_Vector_impl_data" }
%"struct.std::_Vector_base<facebook::velox::type::Parser::stack_symbol_type, std::allocator<facebook::velox::type::Parser::stack_symbol_type>>::_Vector_impl_data" = type { ptr, ptr, ptr }
%"struct.facebook::velox::type::Parser::by_state" = type { i8 }
%"struct.facebook::velox::type::Parser::basic_symbol" = type { %"struct.facebook::velox::type::Parser::by_state", %"class.facebook::velox::type::Parser::value_type" }
%"class.facebook::velox::type::Parser::value_type" = type { %union.anon.0 }
%union.anon.0 = type { x86_fp80, [32 x i8] }
%"struct.facebook::velox::type::Parser::stack_symbol_type" = type { %"struct.facebook::velox::type::Parser::basic_symbol" }
%"class.facebook::velox::type::Parser::context" = type { ptr, ptr }

@_ZN8facebook5velox4type6Parser7yypact_E = constant [71 x i8] c"\0F\E9\02\0E\11%(+*2G\E9\E9\E9=\E9\E9\E9\E9\E9\E922\1A9;\E9\E9\E9\E9<@\E9=\E9\E9I\FEJA\E9\E9\03\E9\E9\19KM\E9\E922\E9\1A\E99D\E9O\FFP\00\E9\E9\E9Q\E9\E9\E9\E9\E9", align 16
@_ZN8facebook5velox4type6Parser8yytable_E = constant [92 x i8] c" (1CE\15!45###$&),\01\16%'\17\02\03\04\05\06\07\08\0967>\02\03\04\05\06\07\08\09\18:<\19?\1E@;=\02\03\04\05\06\1A\08\02\03\04\05\06\1F\08\02\03\04\05\06+\083\22#./\1A#0\00289ABDF\00\00\00\1B\1C\1D", align 16

; Function Attrs: mustprogress nounwind uwtable
define linkonce_odr noundef i64 @_ZNKSt6vectorIN8facebook5velox4type6Parser17stack_symbol_typeESaIS4_EE4sizeEv(ptr noundef nonnull align 8 dereferenceable(24) %this) #4 comdat align 2 {
entry:
  %this.addr = alloca ptr, align 8
  store ptr %this, ptr %this.addr, align 8
  %this1 = load ptr, ptr %this.addr, align 8
  %_M_impl = getelementptr inbounds %"struct.std::_Vector_base", ptr %this1, i32 0, i32 0
  %_M_finish = getelementptr inbounds %"struct.std::_Vector_base<facebook::velox::type::Parser::stack_symbol_type, std::allocator<facebook::velox::type::Parser::stack_symbol_type>>::_Vector_impl_data", ptr %_M_impl, i32 0, i32 1
  %0 = load ptr, ptr %_M_finish, align 8
  %_M_impl2 = getelementptr inbounds %"struct.std::_Vector_base", ptr %this1, i32 0, i32 0
  %_M_start = getelementptr inbounds %"struct.std::_Vector_base<facebook::velox::type::Parser::stack_symbol_type, std::allocator<facebook::velox::type::Parser::stack_symbol_type>>::_Vector_impl_data", ptr %_M_impl2, i32 0, i32 0
  %1 = load ptr, ptr %_M_start, align 8
  %sub.ptr.lhs.cast = ptrtoint ptr %0 to i64
  %sub.ptr.rhs.cast = ptrtoint ptr %1 to i64
  %sub.ptr.sub = sub i64 %sub.ptr.lhs.cast, %sub.ptr.rhs.cast
  %sub.ptr.div = sdiv exact i64 %sub.ptr.sub, 64
  ret i64 %sub.ptr.div
}

; Function Attrs: mustprogress nounwind uwtable
define linkonce_odr noundef nonnull align 16 dereferenceable(64) ptr @_ZNKSt6vectorIN8facebook5velox4type6Parser17stack_symbol_typeESaIS4_EEixEm(ptr noundef nonnull align 8 dereferenceable(24) %this, i64 noundef %__n) #4 comdat align 2 {
entry:
  %this.addr = alloca ptr, align 8
  %__n.addr = alloca i64, align 8
  store ptr %this, ptr %this.addr, align 8
  store i64 %__n, ptr %__n.addr, align 8
  %this1 = load ptr, ptr %this.addr, align 8
  %_M_impl = getelementptr inbounds %"struct.std::_Vector_base", ptr %this1, i32 0, i32 0
  %_M_start = getelementptr inbounds %"struct.std::_Vector_base<facebook::velox::type::Parser::stack_symbol_type, std::allocator<facebook::velox::type::Parser::stack_symbol_type>>::_Vector_impl_data", ptr %_M_impl, i32 0, i32 0
  %0 = load ptr, ptr %_M_start, align 8
  %1 = load i64, ptr %__n.addr, align 8
  %add.ptr = getelementptr inbounds %"struct.facebook::velox::type::Parser::stack_symbol_type", ptr %0, i64 %1
  ret ptr %add.ptr
}

; Function Attrs: mustprogress nounwind uwtable
define linkonce_odr noundef i64 @_ZNK8facebook5velox4type6Parser5stackINS2_17stack_symbol_typeESt6vectorIS4_SaIS4_EEE4sizeEv(ptr noundef nonnull align 8 dereferenceable(24) %this) #4 comdat align 2 {
entry:
  %this.addr = alloca ptr, align 8
  store ptr %this, ptr %this.addr, align 8
  %this1 = load ptr, ptr %this.addr, align 8
  %seq_ = getelementptr inbounds %"class.facebook::velox::type::Parser::stack", ptr %this1, i32 0, i32 0
  %call = call noundef i64 @_ZNKSt6vectorIN8facebook5velox4type6Parser17stack_symbol_typeESaIS4_EE4sizeEv(ptr noundef nonnull align 8 dereferenceable(24) %seq_) #3
  ret i64 %call
}

; Function Attrs: mustprogress nounwind uwtable
define noundef zeroext i1 @_ZN8facebook5velox4type6Parser24yy_table_value_is_error_Ei(i32 noundef %yyvalue) #4 align 2 {
entry:
  %yyvalue.addr = alloca i32, align 4
  store i32 %yyvalue, ptr %yyvalue.addr, align 4
  %0 = load i32, ptr %yyvalue.addr, align 4
  %cmp = icmp eq i32 %0, -1
  ret i1 %cmp
}

; Function Attrs: mustprogress nounwind uwtable
define noundef zeroext i1 @_ZN8facebook5velox4type6Parser25yy_pact_value_is_default_Ei(i32 noundef %yyvalue) #4 align 2 {
entry:
  %yyvalue.addr = alloca i32, align 4
  store i32 %yyvalue, ptr %yyvalue.addr, align 4
  %0 = load i32, ptr %yyvalue.addr, align 4
  %cmp = icmp eq i32 %0, -23
  ret i1 %cmp
}

; Function Attrs: mustprogress nounwind uwtable
define linkonce_odr noundef nonnull align 16 dereferenceable(64) ptr @_ZNK8facebook5velox4type6Parser5stackINS2_17stack_symbol_typeESt6vectorIS4_SaIS4_EEEixEl(ptr noundef nonnull align 8 dereferenceable(24) %this, i64 noundef %i) #4 comdat align 2 {
entry:
  %this.addr = alloca ptr, align 8
  %i.addr = alloca i64, align 8
  store ptr %this, ptr %this.addr, align 8
  store i64 %i, ptr %i.addr, align 8
  %this1 = load ptr, ptr %this.addr, align 8
  %seq_ = getelementptr inbounds %"class.facebook::velox::type::Parser::stack", ptr %this1, i32 0, i32 0
  %call = call noundef i64 @_ZNK8facebook5velox4type6Parser5stackINS2_17stack_symbol_typeESt6vectorIS4_SaIS4_EEE4sizeEv(ptr noundef nonnull align 8 dereferenceable(24) %this1) #3
  %sub = sub nsw i64 %call, 1
  %0 = load i64, ptr %i.addr, align 8
  %sub2 = sub nsw i64 %sub, %0
  %call3 = call noundef nonnull align 16 dereferenceable(64) ptr @_ZNKSt6vectorIN8facebook5velox4type6Parser17stack_symbol_typeESaIS4_EEixEm(ptr noundef nonnull align 8 dereferenceable(24) %seq_, i64 noundef %sub2) #3
  ret ptr %call3
}

; Function Attrs: mustprogress uwtable
define noundef i32 @_ZNK8facebook5velox4type6Parser7context15expected_tokensEPNS2_11symbol_kind16symbol_kind_typeEi(ptr noundef nonnull align 8 dereferenceable(16) %this, ptr noundef %yyarg, i32 noundef %yyargn) #6 align 2 {
entry:
  %retval = alloca i32, align 4
  %this.addr = alloca ptr, align 8
  %yyarg.addr = alloca ptr, align 8
  %yyargn.addr = alloca i32, align 4
  %yycount = alloca i32, align 4
  %yyn = alloca i32, align 4
  %yyxbegin = alloca i32, align 4
  %yychecklim = alloca i32, align 4
  %yyxend = alloca i32, align 4
  %yyx = alloca i32, align 4
  store ptr %this, ptr %this.addr, align 8
  store ptr %yyarg, ptr %yyarg.addr, align 8
  store i32 %yyargn, ptr %yyargn.addr, align 4
  %this1 = load ptr, ptr %this.addr, align 8
  store i32 0, ptr %yycount, align 4
  %yyparser_ = getelementptr inbounds %"class.facebook::velox::type::Parser::context", ptr %this1, i32 0, i32 0
  %0 = load ptr, ptr %yyparser_, align 8
  %yystack_ = getelementptr inbounds %"class.facebook::velox::type::Parser", ptr %0, i32 0, i32 1
  %call = call noundef nonnull align 16 dereferenceable(64) ptr @_ZNK8facebook5velox4type6Parser5stackINS2_17stack_symbol_typeESt6vectorIS4_SaIS4_EEEixEl(ptr noundef nonnull align 8 dereferenceable(24) %yystack_, i64 noundef 0)
  %state = getelementptr inbounds %"struct.facebook::velox::type::Parser::by_state", ptr %call, i32 0, i32 0
  %1 = load i8, ptr %state, align 16
  %conv = sext i8 %1 to i32
  %idxprom = sext i32 %conv to i64
  %arrayidx = getelementptr inbounds [0 x i8], ptr @_ZN8facebook5velox4type6Parser7yypact_E, i64 0, i64 %idxprom
  %2 = load i8, ptr %arrayidx, align 1
  %conv2 = sext i8 %2 to i32
  store i32 %conv2, ptr %yyn, align 4
  %3 = load i32, ptr %yyn, align 4
  %call3 = call noundef zeroext i1 @_ZN8facebook5velox4type6Parser25yy_pact_value_is_default_Ei(i32 noundef %3) #3
  br i1 %call3, label %if.end34, label %if.then

if.then:                                          ; preds = %entry
  %4 = load i32, ptr %yyn, align 4
  %cmp = icmp slt i32 %4, 0
  br i1 %cmp, label %cond.true, label %cond.false

cond.true:                                        ; preds = %if.then
  %5 = load i32, ptr %yyn, align 4
  %sub = sub nsw i32 0, %5
  br label %cond.end

cond.false:                                       ; preds = %if.then
  br label %cond.end

cond.end:                                         ; preds = %cond.false, %cond.true
  %cond = phi i32 [ %sub, %cond.true ], [ 0, %cond.false ]
  store i32 %cond, ptr %yyxbegin, align 4
  %6 = load i32, ptr %yyn, align 4
  %sub4 = sub nsw i32 91, %6
  %add = add nsw i32 %sub4, 1
  store i32 %add, ptr %yychecklim, align 4
  %7 = load i32, ptr %yychecklim, align 4
  %cmp5 = icmp slt i32 %7, 15
  br i1 %cmp5, label %cond.true6, label %cond.false7

cond.true6:                                       ; preds = %cond.end
  %8 = load i32, ptr %yychecklim, align 4
  br label %cond.end8

cond.false7:                                      ; preds = %cond.end
  br label %cond.end8

cond.end8:                                        ; preds = %cond.false7, %cond.true6
  %cond9 = phi i32 [ %8, %cond.true6 ], [ 15, %cond.false7 ]
  store i32 %cond9, ptr %yyxend, align 4
  %9 = load i32, ptr %yyxbegin, align 4
  store i32 %9, ptr %yyx, align 4
  br label %for.cond

for.cond:                                         ; preds = %for.inc, %cond.end8
  %10 = load i32, ptr %yyx, align 4
  %11 = load i32, ptr %yyxend, align 4
  %cmp10 = icmp slt i32 %10, %11
  br i1 %cmp10, label %for.body, label %for.end

for.body:                                         ; preds = %for.cond
  %12 = load i32, ptr %yyx, align 4
  %13 = load i32, ptr %yyn, align 4
  %add11 = add nsw i32 %12, %13
  %idxprom12 = sext i32 %add11 to i64
  %arrayidx13 = getelementptr inbounds [0 x i8], ptr @_ZN8facebook5velox4type6Parser8yycheck_E, i64 0, i64 %idxprom12
  %14 = load i8, ptr %arrayidx13, align 1
  %conv14 = sext i8 %14 to i32
  %15 = load i32, ptr %yyx, align 4
  %cmp15 = icmp eq i32 %conv14, %15
  br i1 %cmp15, label %land.lhs.true, label %if.end32

land.lhs.true:                                    ; preds = %for.body
  %16 = load i32, ptr %yyx, align 4
  %cmp16 = icmp ne i32 %16, 1
  br i1 %cmp16, label %land.lhs.true17, label %if.end32

land.lhs.true17:                                  ; preds = %land.lhs.true
  %17 = load i32, ptr %yyx, align 4
  %18 = load i32, ptr %yyn, align 4
  %add18 = add nsw i32 %17, %18
  %idxprom19 = sext i32 %add18 to i64
  %arrayidx20 = getelementptr inbounds [0 x i8], ptr @_ZN8facebook5velox4type6Parser8yytable_E, i64 0, i64 %idxprom19
  %19 = load i8, ptr %arrayidx20, align 1
  %conv21 = sext i8 %19 to i32
  %call22 = call noundef zeroext i1 @_ZN8facebook5velox4type6Parser24yy_table_value_is_error_Ei(i32 noundef %conv21) #3
  br i1 %call22, label %if.end32, label %if.then23

if.then23:                                        ; preds = %land.lhs.true17
  %20 = load ptr, ptr %yyarg.addr, align 8
  %tobool = icmp ne ptr %20, null
  br i1 %tobool, label %if.else, label %if.then24

if.then24:                                        ; preds = %if.then23
  %21 = load i32, ptr %yycount, align 4
  %inc = add nsw i32 %21, 1
  store i32 %inc, ptr %yycount, align 4
  br label %if.end31

if.else:                                          ; preds = %if.then23
  %22 = load i32, ptr %yycount, align 4
  %23 = load i32, ptr %yyargn.addr, align 4
  %cmp25 = icmp eq i32 %22, %23
  br i1 %cmp25, label %if.then26, label %if.else27

if.then26:                                        ; preds = %if.else
  store i32 0, ptr %retval, align 4
  br label %return

if.else27:                                        ; preds = %if.else
  %24 = load i32, ptr %yyx, align 4
  %25 = load ptr, ptr %yyarg.addr, align 8
  %26 = load i32, ptr %yycount, align 4
  %inc28 = add nsw i32 %26, 1
  store i32 %inc28, ptr %yycount, align 4
  %idxprom29 = sext i32 %26 to i64
  %arrayidx30 = getelementptr inbounds i32, ptr %25, i64 %idxprom29
  store i32 %24, ptr %arrayidx30, align 4
  br label %if.end

if.end:                                           ; preds = %if.else27
  br label %if.end31

if.end31:                                         ; preds = %if.end, %if.then24
  br label %if.end32

if.end32:                                         ; preds = %if.end31, %land.lhs.true17, %land.lhs.true, %for.body
  br label %for.inc

for.inc:                                          ; preds = %if.end32
  %27 = load i32, ptr %yyx, align 4
  %inc33 = add nsw i32 %27, 1
  store i32 %inc33, ptr %yyx, align 4
  br label %for.cond, !llvm.loop !10

for.end:                                          ; preds = %for.cond
  br label %if.end34

if.end34:                                         ; preds = %for.end, %entry
  %28 = load ptr, ptr %yyarg.addr, align 8
  %tobool35 = icmp ne ptr %28, null
  br i1 %tobool35, label %land.lhs.true36, label %if.end42

land.lhs.true36:                                  ; preds = %if.end34
  %29 = load i32, ptr %yycount, align 4
  %cmp37 = icmp eq i32 %29, 0
  br i1 %cmp37, label %land.lhs.true38, label %if.end42

land.lhs.true38:                                  ; preds = %land.lhs.true36
  %30 = load i32, ptr %yyargn.addr, align 4
  %cmp39 = icmp slt i32 0, %30
  br i1 %cmp39, label %if.then40, label %if.end42

if.then40:                                        ; preds = %land.lhs.true38
  %31 = load ptr, ptr %yyarg.addr, align 8
  %arrayidx41 = getelementptr inbounds i32, ptr %31, i64 0
  store i32 -2, ptr %arrayidx41, align 4
  br label %if.end42

if.end42:                                         ; preds = %if.then40, %land.lhs.true38, %land.lhs.true36, %if.end34
  %32 = load i32, ptr %yycount, align 4
  store i32 %32, ptr %retval, align 4
  br label %return

return:                                           ; preds = %if.end42, %if.then26
  %33 = load i32, ptr %retval, align 4
  ret i32 %33
}