; Function Attrs: mustprogress nofree norecurse nosync nounwind memory(read, argmem: readwrite, inaccessiblemem: none) uwtable
define noundef i32 @_ZNK8facebook5velox4type6Parser7context15expected_tokensEPNS2_11symbol_kind16symbol_kind_typeEi(ptr nocapture noundef nonnull readonly align 8 dereferenceable(16) %this, ptr noundef writeonly %yyarg, i32 noundef %yyargn) local_unnamed_addr #13 align 2 {
entry:
  %0 = load ptr, ptr %this, align 8
  %yystack_ = getelementptr inbounds i8, ptr %0, i64 8
  %_M_finish.i.i.i = getelementptr inbounds i8, ptr %0, i64 16
  %1 = load ptr, ptr %_M_finish.i.i.i, align 8
  %2 = load ptr, ptr %yystack_, align 8
  %sub.ptr.lhs.cast.i.i.i = ptrtoint ptr %1 to i64
  %sub.ptr.rhs.cast.i.i.i = ptrtoint ptr %2 to i64
  %sub.ptr.sub.i.i.i = sub i64 %sub.ptr.lhs.cast.i.i.i, %sub.ptr.rhs.cast.i.i.i
  %3 = getelementptr i8, ptr %2, i64 %sub.ptr.sub.i.i.i
  %add.ptr.i.i = getelementptr i8, ptr %3, i64 -64
  %4 = load i8, ptr %add.ptr.i.i, align 16
  %idxprom = sext i8 %4 to i64
  %arrayidx = getelementptr inbounds [0 x i8], ptr @_ZN8facebook5velox4type6Parser7yypact_E, i64 0, i64 %idxprom
  %5 = load i8, ptr %arrayidx, align 1
  %cmp.i = icmp eq i8 %5, -23
  br i1 %cmp.i, label %if.end34, label %if.then

if.then:                                          ; preds = %entry
  %conv2 = sext i8 %5 to i32
  %cmp = icmp slt i8 %5, 0
  %sub = sub nsw i32 0, %conv2
  %cond = select i1 %cmp, i32 %sub, i32 0
  %add = sub nsw i32 92, %conv2
  %cond9 = tail call i32 @llvm.smin.i32(i32 %add, i32 15)
  %cmp1025 = icmp slt i32 %cond, %cond9
  br i1 %cmp1025, label %for.body.lr.ph, label %if.end34

for.body.lr.ph:                                   ; preds = %if.then
  %tobool.not = icmp eq ptr %yyarg, null
  %6 = sext i32 %cond to i64
  %7 = sext i8 %5 to i64
  %8 = sext i32 %cond9 to i64
  br i1 %tobool.not, label %for.body.us, label %for.body

for.body.us:                                      ; preds = %for.body.lr.ph, %for.inc.us
  %indvars.iv31 = phi i64 [ %indvars.iv.next32, %for.inc.us ], [ %6, %for.body.lr.ph ]
  %yycount.026.us = phi i32 [ %yycount.1.us, %for.inc.us ], [ 0, %for.body.lr.ph ]
  %9 = add nsw i64 %indvars.iv31, %7
  %arrayidx13.us = getelementptr inbounds [0 x i8], ptr @_ZN8facebook5velox4type6Parser8yycheck_E, i64 0, i64 %9
  %10 = load i8, ptr %arrayidx13.us, align 1
  %conv14.us = sext i8 %10 to i32
  %11 = trunc i64 %indvars.iv31 to i32
  %cmp15.us = icmp eq i32 %11, %conv14.us
  %12 = icmp ne i64 %indvars.iv31, 1
  %or.cond.us = and i1 %12, %cmp15.us
  br i1 %or.cond.us, label %land.lhs.true17.us, label %for.inc.us

land.lhs.true17.us:                               ; preds = %for.body.us
  %arrayidx20.us = getelementptr inbounds [0 x i8], ptr @_ZN8facebook5velox4type6Parser8yytable_E, i64 0, i64 %9
  %13 = load i8, ptr %arrayidx20.us, align 1
  %cmp.i23.us = icmp ne i8 %13, -1
  %inc.us = zext i1 %cmp.i23.us to i32
  %spec.select = add nsw i32 %yycount.026.us, %inc.us
  br label %for.inc.us

for.inc.us:                                       ; preds = %land.lhs.true17.us, %for.body.us
  %yycount.1.us = phi i32 [ %yycount.026.us, %for.body.us ], [ %spec.select, %land.lhs.true17.us ]
  %indvars.iv.next32 = add nsw i64 %indvars.iv31, 1
  %cmp10.us = icmp slt i64 %indvars.iv.next32, %8
  br i1 %cmp10.us, label %for.body.us, label %if.end34, !llvm.loop !13

for.body:                                         ; preds = %for.body.lr.ph, %for.inc
  %indvars.iv = phi i64 [ %indvars.iv.next, %for.inc ], [ %6, %for.body.lr.ph ]
  %yycount.026 = phi i32 [ %yycount.1, %for.inc ], [ 0, %for.body.lr.ph ]
  %14 = add nsw i64 %indvars.iv, %7
  %arrayidx13 = getelementptr inbounds [0 x i8], ptr @_ZN8facebook5velox4type6Parser8yycheck_E, i64 0, i64 %14
  %15 = load i8, ptr %arrayidx13, align 1
  %conv14 = sext i8 %15 to i32
  %16 = trunc i64 %indvars.iv to i32
  %cmp15 = icmp eq i32 %16, %conv14
  %17 = icmp ne i64 %indvars.iv, 1
  %or.cond = and i1 %17, %cmp15
  br i1 %or.cond, label %land.lhs.true17, label %for.inc

land.lhs.true17:                                  ; preds = %for.body
  %arrayidx20 = getelementptr inbounds [0 x i8], ptr @_ZN8facebook5velox4type6Parser8yytable_E, i64 0, i64 %14
  %18 = load i8, ptr %arrayidx20, align 1
  %cmp.i23 = icmp eq i8 %18, -1
  br i1 %cmp.i23, label %for.inc, label %if.then23

if.then23:                                        ; preds = %land.lhs.true17
  %cmp25 = icmp eq i32 %yycount.026, %yyargn
  br i1 %cmp25, label %return, label %if.else27

if.else27:                                        ; preds = %if.then23
  %inc28 = add nsw i32 %yycount.026, 1
  %idxprom29 = sext i32 %yycount.026 to i64
  %arrayidx30 = getelementptr inbounds i32, ptr %yyarg, i64 %idxprom29
  store i32 %conv14, ptr %arrayidx30, align 4
  br label %for.inc

for.inc:                                          ; preds = %for.body, %land.lhs.true17, %if.else27
  %yycount.1 = phi i32 [ %yycount.026, %land.lhs.true17 ], [ %inc28, %if.else27 ], [ %yycount.026, %for.body ]
  %indvars.iv.next = add nsw i64 %indvars.iv, 1
  %cmp10 = icmp slt i64 %indvars.iv.next, %8
  br i1 %cmp10, label %for.body, label %if.end34, !llvm.loop !13

if.end34:                                         ; preds = %for.inc, %for.inc.us, %if.then, %entry
  %yycount.2 = phi i32 [ 0, %entry ], [ 0, %if.then ], [ %yycount.1.us, %for.inc.us ], [ %yycount.1, %for.inc ]
  %tobool35 = icmp ne ptr %yyarg, null
  %cmp37 = icmp eq i32 %yycount.2, 0
  %or.cond1 = select i1 %tobool35, i1 %cmp37, i1 false
  %cmp39 = icmp sgt i32 %yyargn, 0
  %or.cond2 = and i1 %cmp39, %or.cond1
  br i1 %or.cond2, label %if.then40, label %return

if.then40:                                        ; preds = %if.end34
  store i32 -2, ptr %yyarg, align 4
  br label %return

return:                                           ; preds = %if.then23, %if.end34, %if.then40
  %retval.0 = phi i32 [ 0, %if.then40 ], [ %yycount.2, %if.end34 ], [ 0, %if.then23 ]
  ret i32 %retval.0
}